; Function Attrs: mustprogress nounwind uwtable
define internal void @"_ZNK4$_379to_stringB5cxx11E6insn_t"(ptr dead_on_unwind noalias writable sret(%"class.std::__cxx11::basic_string") align 8 %0, ptr nocapture nonnull readnone align 8 %1, i64 %2) unnamed_addr #8 align 2 {
  %4 = lshr i64 %2, 4
  %5 = and i64 %4, 4
  %6 = lshr i64 %2, 2
  %7 = and i64 %6, 8
  %8 = or disjoint i64 %5, %7
  %9 = lshr i64 %2, 7
  %10 = and i64 %9, 48
  %11 = or disjoint i64 %8, %10
  %12 = lshr i64 %2, 1
  %13 = and i64 %12, 960
  %14 = or disjoint i64 %11, %13
  %15 = trunc i64 %14 to i32
  tail call void @_ZNSt7__cxx119to_stringEi(ptr dead_on_unwind writable sret(%"class.std::__cxx11::basic_string") align 8 %0, i32 noundef %15) #19
  ret void
}